target datalayout = "e-m:e-p270:32:32-p271:32:32-p272:64:64-i64:64-i128:128-f80:128-n8:16:32:64-S128"
target triple = "x86_64-unknown-linux-gnu"

%struct.vhost_net = type { %struct.vhost_dev, [2 x %struct.vhost_virtqueue], i32, ptr }
%struct.vhost_dev = type { ptr, %struct.MemoryListener, %struct.MemoryListener, ptr, i32, ptr, i32, ptr, ptr, i32, i32, i32, i32, i64, i64, i64, i64, i64, i64, i8, i8, i64, ptr, ptr, ptr, ptr, %struct.anon, %struct.anon.1, %struct.IOMMUNotifier, ptr }
%struct.MemoryListener = type { ptr, ptr, ptr, ptr, ptr, ptr, ptr, ptr, ptr, ptr, ptr, ptr, ptr, ptr, ptr, ptr, ptr, i32, ptr, ptr, %union.anon, %union.anon.0 }
%union.anon = type { %struct.QTailQLink }
%struct.QTailQLink = type { ptr, ptr }
%union.anon.0 = type { %struct.QTailQLink }
%struct.anon = type { ptr, ptr }
%struct.anon.1 = type { ptr }
%struct.IOMMUNotifier = type { ptr, i32, i64, i64, i32, %struct.anon.2 }
%struct.anon.2 = type { ptr, ptr }
%struct.vhost_virtqueue = type { i32, i32, ptr, ptr, ptr, i32, i64, i32, i64, i32, i64, i32, %struct.EventNotifier, %struct.EventNotifier, %struct.EventNotifier, ptr }
%struct.EventNotifier = type { i32, i32, i8 }
%struct.NetClientState = type { ptr, i32, %union.anon.3, ptr, ptr, ptr, ptr, [256 x i8], i8, ptr, i32, i8, i32, i32, i8, i8, i8, %union.anon.4 }
%union.anon.3 = type { %struct.QTailQLink }
%union.anon.4 = type { %struct.QTailQLink }
%struct.NetClientInfo = type { i32, i64, ptr, ptr, ptr, ptr, ptr, ptr, ptr, ptr, ptr, ptr, ptr, ptr, ptr, ptr, ptr, ptr, ptr, ptr, ptr, ptr, ptr, ptr, ptr, ptr, ptr }
%struct.VhostOps = type { i32, ptr, ptr, ptr, ptr, ptr, ptr, ptr, ptr, ptr, ptr, ptr, ptr, ptr, ptr, ptr, ptr, ptr, ptr, ptr, ptr, ptr, ptr, ptr, ptr, ptr, ptr, ptr, ptr, ptr, ptr, ptr, ptr, ptr, ptr, ptr, ptr, ptr, ptr, ptr, ptr, ptr, ptr, ptr, ptr, ptr, ptr, ptr, ptr }

@.str.6 = private unnamed_addr constant [27 x i8] c"../qemu/hw/net/vhost_net.c\00", align 1
@.str.9 = private unnamed_addr constant [10 x i8] c"vhost_net\00", align 1
@__PRETTY_FUNCTION__.get_vhost_net = private unnamed_addr constant [47 x i8] c"VHostNetState *get_vhost_net(NetClientState *)\00", align 1

; Function Attrs: nounwind sspstrong uwtable
define dso_local ptr @get_vhost_net(ptr noundef %nc) #0 {
entry:
  %retval = alloca ptr, align 8
  %nc.addr = alloca ptr, align 8
  %vhost_net = alloca ptr, align 8
  store ptr %nc, ptr %nc.addr, align 8
  store ptr null, ptr %vhost_net, align 8
  %0 = load ptr, ptr %nc.addr, align 8
  %tobool = icmp ne ptr %0, null
  br i1 %tobool, label %if.end, label %if.then

if.then:                                          ; preds = %entry
  store ptr null, ptr %retval, align 8
  br label %return

if.end:                                           ; preds = %entry
  %1 = load ptr, ptr %nc.addr, align 8
  %info = getelementptr inbounds %struct.NetClientState, ptr %1, i32 0, i32 0
  %2 = load ptr, ptr %info, align 8
  %type = getelementptr inbounds %struct.NetClientInfo, ptr %2, i32 0, i32 0
  %3 = load i32, ptr %type, align 8
  switch i32 %3, label %sw.default [
    i32 3, label %sw.bb
    i32 12, label %sw.bb1
    i32 13, label %sw.bb6
  ]

sw.bb:                                            ; preds = %if.end
  %4 = load ptr, ptr %nc.addr, align 8
  %call = call ptr @tap_get_vhost_net(ptr noundef %4)
  store ptr %call, ptr %vhost_net, align 8
  br label %sw.epilog

sw.bb1:                                           ; preds = %if.end
  %5 = load ptr, ptr %nc.addr, align 8
  %call2 = call ptr @vhost_user_get_vhost_net(ptr noundef %5)
  store ptr %call2, ptr %vhost_net, align 8
  %6 = load ptr, ptr %vhost_net, align 8
  %tobool3 = icmp ne ptr %6, null
  br i1 %tobool3, label %if.then4, label %if.else

if.then4:                                         ; preds = %sw.bb1
  br label %if.end5

if.else:                                          ; preds = %sw.bb1
  call void @__assert_fail(ptr noundef @.str.9, ptr noundef @.str.6, i32 noundef 523, ptr noundef @__PRETTY_FUNCTION__.get_vhost_net) #8
  unreachable

if.end5:                                          ; preds = %if.then4
  br label %sw.epilog

sw.bb6:                                           ; preds = %if.end
  %7 = load ptr, ptr %nc.addr, align 8
  %call7 = call ptr @vhost_vdpa_get_vhost_net(ptr noundef %7)
  store ptr %call7, ptr %vhost_net, align 8
  %8 = load ptr, ptr %vhost_net, align 8
  %tobool8 = icmp ne ptr %8, null
  br i1 %tobool8, label %if.then9, label %if.else10

if.then9:                                         ; preds = %sw.bb6
  br label %if.end11

if.else10:                                        ; preds = %sw.bb6
  call void @__assert_fail(ptr noundef @.str.9, ptr noundef @.str.6, i32 noundef 529, ptr noundef @__PRETTY_FUNCTION__.get_vhost_net) #8
  unreachable

if.end11:                                         ; preds = %if.then9
  br label %sw.epilog

sw.default:                                       ; preds = %if.end
  br label %sw.epilog

sw.epilog:                                        ; preds = %sw.default, %if.end11, %if.end5, %sw.bb
  %9 = load ptr, ptr %vhost_net, align 8
  store ptr %9, ptr %retval, align 8
  br label %return

return:                                           ; preds = %sw.epilog, %if.then
  %10 = load ptr, ptr %retval, align 8
  ret ptr %10
}

; Function Attrs: nounwind sspstrong uwtable
define dso_local i32 @vhost_set_vring_enable(ptr noundef %nc, i32 noundef %enable) #0 {
entry:
  %retval = alloca i32, align 4
  %nc.addr = alloca ptr, align 8
  %enable.addr = alloca i32, align 4
  %net = alloca ptr, align 8
  %vhost_ops = alloca ptr, align 8
  store ptr %nc, ptr %nc.addr, align 8
  store i32 %enable, ptr %enable.addr, align 4
  %0 = load ptr, ptr %nc.addr, align 8
  %call = call ptr @get_vhost_net(ptr noundef %0)
  store ptr %call, ptr %net, align 8
  %1 = load ptr, ptr %net, align 8
  %dev = getelementptr inbounds %struct.vhost_net, ptr %1, i32 0, i32 0
  %vhost_ops1 = getelementptr inbounds %struct.vhost_dev, ptr %dev, i32 0, i32 23
  %2 = load ptr, ptr %vhost_ops1, align 8
  store ptr %2, ptr %vhost_ops, align 8
  %3 = load i32, ptr %enable.addr, align 4
  %4 = load ptr, ptr %nc.addr, align 8
  %vring_enable = getelementptr inbounds %struct.NetClientState, ptr %4, i32 0, i32 12
  store i32 %3, ptr %vring_enable, align 8
  %5 = load ptr, ptr %vhost_ops, align 8
  %tobool = icmp ne ptr %5, null
  br i1 %tobool, label %land.lhs.true, label %if.end

land.lhs.true:                                    ; preds = %entry
  %6 = load ptr, ptr %vhost_ops, align 8
  %vhost_set_vring_enable = getelementptr inbounds %struct.VhostOps, ptr %6, i32 0, i32 27
  %7 = load ptr, ptr %vhost_set_vring_enable, align 8
  %tobool2 = icmp ne ptr %7, null
  br i1 %tobool2, label %if.then, label %if.end

if.then:                                          ; preds = %land.lhs.true
  %8 = load ptr, ptr %vhost_ops, align 8
  %vhost_set_vring_enable3 = getelementptr inbounds %struct.VhostOps, ptr %8, i32 0, i32 27
  %9 = load ptr, ptr %vhost_set_vring_enable3, align 8
  %10 = load ptr, ptr %net, align 8
  %dev4 = getelementptr inbounds %struct.vhost_net, ptr %10, i32 0, i32 0
  %11 = load i32, ptr %enable.addr, align 4
  %call5 = call i32 %9(ptr noundef %dev4, i32 noundef %11)
  store i32 %call5, ptr %retval, align 4
  br label %return

if.end:                                           ; preds = %land.lhs.true, %entry
  store i32 0, ptr %retval, align 4
  br label %return

return:                                           ; preds = %if.end, %if.then
  %12 = load i32, ptr %retval, align 4
  ret i32 %12
}