; Function Attrs: nounwind sspstrong uwtable
define dso_local i32 @vhost_set_vring_enable(ptr noundef %nc, i32 noundef %enable) local_unnamed_addr #0 {
entry:
  %tobool.not.i = icmp eq ptr %nc, null
  br i1 %tobool.not.i, label %get_vhost_net.exit, label %if.end.i

if.end.i:                                         ; preds = %entry
  %0 = load ptr, ptr %nc, align 8
  %1 = load i32, ptr %0, align 8
  switch i32 %1, label %get_vhost_net.exit [
    i32 3, label %sw.bb.i
    i32 12, label %sw.bb1.i
    i32 13, label %sw.bb6.i
  ]

sw.bb.i:                                          ; preds = %if.end.i
  %call.i = tail call ptr @tap_get_vhost_net(ptr noundef nonnull %nc) #11
  br label %get_vhost_net.exit

sw.bb1.i:                                         ; preds = %if.end.i
  %call2.i = tail call ptr @vhost_user_get_vhost_net(ptr noundef nonnull %nc) #11
  %tobool3.not.i = icmp eq ptr %call2.i, null
  br i1 %tobool3.not.i, label %if.else.i, label %get_vhost_net.exit

if.else.i:                                        ; preds = %sw.bb1.i
  tail call void @__assert_fail(ptr noundef nonnull @.str.9, ptr noundef nonnull @.str.6, i32 noundef 523, ptr noundef nonnull @__PRETTY_FUNCTION__.get_vhost_net) #14
  unreachable

sw.bb6.i:                                         ; preds = %if.end.i
  %call7.i = tail call ptr @vhost_vdpa_get_vhost_net(ptr noundef nonnull %nc) #11
  %tobool8.not.i = icmp eq ptr %call7.i, null
  br i1 %tobool8.not.i, label %if.else10.i, label %get_vhost_net.exit

if.else10.i:                                      ; preds = %sw.bb6.i
  tail call void @__assert_fail(ptr noundef nonnull @.str.9, ptr noundef nonnull @.str.6, i32 noundef 529, ptr noundef nonnull @__PRETTY_FUNCTION__.get_vhost_net) #14
  unreachable

get_vhost_net.exit:                               ; preds = %entry, %if.end.i, %sw.bb.i, %sw.bb1.i, %sw.bb6.i
  %retval.0.i = phi ptr [ null, %entry ], [ null, %if.end.i ], [ %call7.i, %sw.bb6.i ], [ %call2.i, %sw.bb1.i ], [ %call.i, %sw.bb.i ]
  %vhost_ops1 = getelementptr inbounds nuw i8, ptr %retval.0.i, i64 528
  %2 = load ptr, ptr %vhost_ops1, align 8
  %vring_enable = getelementptr inbounds nuw i8, ptr %nc, i64 344
  store i32 %enable, ptr %vring_enable, align 8
  %tobool.not = icmp eq ptr %2, null
  br i1 %tobool.not, label %return, label %land.lhs.true

land.lhs.true:                                    ; preds = %get_vhost_net.exit
  %vhost_set_vring_enable = getelementptr inbounds nuw i8, ptr %2, i64 216
  %3 = load ptr, ptr %vhost_set_vring_enable, align 8
  %tobool2.not = icmp eq ptr %3, null
  br i1 %tobool2.not, label %return, label %if.then

if.then:                                          ; preds = %land.lhs.true
  %call5 = tail call i32 %3(ptr noundef nonnull %retval.0.i, i32 noundef %enable) #11
  br label %return

return:                                           ; preds = %get_vhost_net.exit, %land.lhs.true, %if.then
  %retval.0 = phi i32 [ %call5, %if.then ], [ 0, %land.lhs.true ], [ 0, %get_vhost_net.exit ]
  ret i32 %retval.0
}